target datalayout = "e-m:e-p270:32:32-p271:32:32-p272:64:64-i64:64-i128:128-f80:128-n8:16:32:64-S128"
target triple = "x86_64-pc-linux-gnu"

; Function Attrs: nounwind uwtable
define dso_local ptr @ExecInitCheck(ptr noundef %0, ptr noundef %1) #0 {
  %3 = alloca ptr, align 8
  %4 = alloca ptr, align 8
  %5 = alloca ptr, align 8
  store ptr %0, ptr %4, align 8
  store ptr %1, ptr %5, align 8
  %6 = load ptr, ptr %4, align 8
  %7 = icmp eq ptr %6, null
  br i1 %7, label %8, label %9

8:                                                ; preds = %2
  store ptr null, ptr %3, align 8
  br label %14

9:                                                ; preds = %2
  %10 = load ptr, ptr %4, align 8
  %11 = call ptr @make_ands_explicit(ptr noundef %10)
  %12 = load ptr, ptr %5, align 8
  %13 = call ptr @ExecInitExpr(ptr noundef %11, ptr noundef %12)
  store ptr %13, ptr %3, align 8
  br label %14

14:                                               ; preds = %9, %8
  %15 = load ptr, ptr %3, align 8
  ret ptr %15
}