; Function Attrs: nounwind uwtable
define dso_local noundef ptr @ExecInitCheck(ptr noundef %0, ptr noundef %1) local_unnamed_addr #0 {
  %3 = icmp eq ptr %0, null
  br i1 %3, label %7, label %4

4:                                                ; preds = %2
  %5 = tail call ptr @make_ands_explicit(ptr noundef nonnull %0) #10
  %6 = tail call ptr @ExecInitExpr(ptr noundef %5, ptr noundef %1)
  br label %7

7:                                                ; preds = %2, %4
  %.0 = phi ptr [ %6, %4 ], [ null, %2 ]
  ret ptr %.0
}